; Function Attrs: nounwind uwtable
define ptr @l_Std_Time_Internal_Bounded_LE_byMod(ptr noundef %0, ptr noundef %1, ptr noundef readnone captures(none) %2) local_unnamed_addr #1 {
  %4 = ptrtoint ptr %0 to i64
  %5 = and i64 %4, 1
  %.not.i = icmp eq i64 %5, 0
  br i1 %.not.i, label %.critedge.i, label %6, !prof !10

6:                                                ; preds = %3
  %7 = ptrtoint ptr %1 to i64
  %8 = and i64 %7, 1
  %.not11.i = icmp eq i64 %8, 0
  br i1 %.not11.i, label %.critedge.i, label %9, !prof !10

9:                                                ; preds = %6
  %10 = shl i64 %7, 31
  %11 = icmp ult i64 %10, 4294967296
  br i1 %11, label %lean_int_mod.exit, label %12

12:                                               ; preds = %9
  %13 = ashr i64 %10, 32
  %14 = shl i64 %4, 31
  %15 = ashr i64 %14, 32
  %16 = srem i64 %15, %13
  %17 = shl nsw i64 %16, 1
  %18 = and i64 %17, 8589934590
  %19 = or disjoint i64 %18, 1
  %20 = inttoptr i64 %19 to ptr
  br label %lean_int_mod.exit

.critedge.i:                                      ; preds = %6, %3
  %21 = tail call ptr @lean_int_big_mod(ptr noundef %0, ptr noundef %1) #5
  br label %lean_int_mod.exit

lean_int_mod.exit:                                ; preds = %9, %12, %.critedge.i
  %.1.i = phi ptr [ %21, %.critedge.i ], [ %0, %9 ], [ %20, %12 ]
  ret ptr %.1.i
}